target datalayout = "e-m:e-p270:32:32-p271:32:32-p272:64:64-i64:64-i128:128-f80:128-n8:16:32:64-S128"
target triple = "x86_64-pc-linux-gnu"

%struct.flock = type { i16, i16, i64, i64, i32 }

@.str.5 = private unnamed_addr constant [15 x i8] c"Release failed\00", align 1

; Function Attrs: nounwind uwtable
define void @Java_sun_nio_ch_UnixFileDispatcherImpl_release0(ptr noundef %0, ptr noundef %1, ptr noundef %2, i64 noundef %3, i64 noundef %4) #0 {
  %6 = alloca ptr, align 8
  %7 = alloca ptr, align 8
  %8 = alloca ptr, align 8
  %9 = alloca i64, align 8
  %10 = alloca i64, align 8
  %11 = alloca i32, align 4
  %12 = alloca i32, align 4
  %13 = alloca %struct.flock, align 8
  %14 = alloca i32, align 4
  store ptr %0, ptr %6, align 8
  store ptr %1, ptr %7, align 8
  store ptr %2, ptr %8, align 8
  store i64 %3, ptr %9, align 8
  store i64 %4, ptr %10, align 8
  %15 = load ptr, ptr %6, align 8
  %16 = load ptr, ptr %8, align 8
  %17 = call i32 @fdval(ptr noundef %15, ptr noundef %16)
  store i32 %17, ptr %11, align 4
  store i32 0, ptr %12, align 4
  store i32 6, ptr %14, align 4
  %18 = getelementptr inbounds %struct.flock, ptr %13, i32 0, i32 1
  store i16 0, ptr %18, align 2
  %19 = load i64, ptr %10, align 8
  %20 = icmp eq i64 %19, 9223372036854775807
  br i1 %20, label %21, label %23

21:                                               ; preds = %5
  %22 = getelementptr inbounds %struct.flock, ptr %13, i32 0, i32 3
  store i64 0, ptr %22, align 8
  br label %26

23:                                               ; preds = %5
  %24 = load i64, ptr %10, align 8
  %25 = getelementptr inbounds %struct.flock, ptr %13, i32 0, i32 3
  store i64 %24, ptr %25, align 8
  br label %26

26:                                               ; preds = %23, %21
  %27 = load i64, ptr %9, align 8
  %28 = getelementptr inbounds %struct.flock, ptr %13, i32 0, i32 2
  store i64 %27, ptr %28, align 8
  %29 = getelementptr inbounds %struct.flock, ptr %13, i32 0, i32 0
  store i16 2, ptr %29, align 8
  %30 = load i32, ptr %11, align 4
  %31 = load i32, ptr %14, align 4
  %32 = call i32 (i32, i32, ...) @fcntl64(i32 noundef %30, i32 noundef %31, ptr noundef %13)
  store i32 %32, ptr %12, align 4
  %33 = load i32, ptr %12, align 4
  %34 = icmp slt i32 %33, 0
  br i1 %34, label %35, label %37

35:                                               ; preds = %26
  %36 = load ptr, ptr %6, align 8
  call void @JNU_ThrowIOExceptionWithLastError(ptr noundef %36, ptr noundef @.str.5)
  br label %37

37:                                               ; preds = %35, %26
  ret void
}