; Function Attrs: nounwind uwtable
define void @Java_sun_nio_ch_UnixFileDispatcherImpl_release0(ptr noundef %0, ptr nocapture noundef readnone %1, ptr noundef %2, i64 noundef %3, i64 noundef %4) local_unnamed_addr #0 {
  %6 = alloca %struct.flock, align 8
  %7 = tail call i32 @fdval(ptr noundef %0, ptr noundef %2) #6
  %8 = getelementptr inbounds i8, ptr %6, i64 2
  store i16 0, ptr %8, align 2
  %9 = icmp eq i64 %4, 9223372036854775807
  %spec.select = select i1 %9, i64 0, i64 %4
  %10 = getelementptr inbounds i8, ptr %6, i64 16
  store i64 %spec.select, ptr %10, align 8
  %11 = getelementptr inbounds i8, ptr %6, i64 8
  store i64 %3, ptr %11, align 8
  store i16 2, ptr %6, align 8
  %12 = call i32 (i32, i32, ...) @fcntl64(i32 noundef %7, i32 noundef 6, ptr noundef nonnull %6) #6
  %13 = icmp slt i32 %12, 0
  br i1 %13, label %14, label %15

14:                                               ; preds = %5
  call void @JNU_ThrowIOExceptionWithLastError(ptr noundef %0, ptr noundef nonnull @.str.5) #6
  br label %15

15:                                               ; preds = %14, %5
  ret void
}